; ModuleID = '14/992.c'
source_filename = "14/992.c"
target datalayout = "e-m:e-p270:32:32-p271:32:32-p272:64:64-i64:64-f80:128-n8:16:32:64-S128"
target triple = "x86_64-pc-linux-gnu"

%struct.stud = type { i32, i32, i32, i32, %struct.stud* }

@tol = common dso_local global i32 0, align 4
@.str = private unnamed_addr constant [7 x i8] c"%d%d%d\00", align 1
@.str.1 = private unnamed_addr constant [7 x i8] c"%d %d\0A\00", align 1
@.str.2 = private unnamed_addr constant [3 x i8] c"%d\00", align 1

; Function Attrs: noinline nounwind uwtable
define dso_local %struct.stud* @creat() #0 {
  %1 = alloca %struct.stud*, align 8
  %2 = alloca %struct.stud*, align 8
  %3 = alloca %struct.stud*, align 8
  %4 = alloca i32, align 4
  store i32 1, i32* %4, align 4
  %5 = call noalias i8* @malloc(i64 24) #3
  %6 = bitcast i8* %5 to %struct.stud*
  store %struct.stud* %6, %struct.stud** %3, align 8
  store %struct.stud* %6, %struct.stud** %2, align 8
  %7 = load %struct.stud*, %struct.stud** %2, align 8
  store %struct.stud* %7, %struct.stud** %1, align 8
  store i32 1, i32* %4, align 4
  br label %8

8:                                                ; preds = %35, %0
  %9 = load i32, i32* %4, align 4
  %10 = load i32, i32* @tol, align 4
  %11 = icmp slt i32 %9, %10
  br i1 %11, label %12, label %38

12:                                               ; preds = %8
  %13 = load %struct.stud*, %struct.stud** %2, align 8
  %14 = getelementptr inbounds %struct.stud, %struct.stud* %13, i32 0, i32 0
  %15 = load %struct.stud*, %struct.stud** %2, align 8
  %16 = getelementptr inbounds %struct.stud, %struct.stud* %15, i32 0, i32 1
  %17 = load %struct.stud*, %struct.stud** %2, align 8
  %18 = getelementptr inbounds %struct.stud, %struct.stud* %17, i32 0, i32 2
  %19 = call i32 (i8*, ...) @__isoc99_scanf(i8* getelementptr inbounds ([7 x i8], [7 x i8]* @.str, i64 0, i64 0), i32* %14, i32* %16, i32* %18)
  %20 = load %struct.stud*, %struct.stud** %2, align 8
  %21 = getelementptr inbounds %struct.stud, %struct.stud* %20, i32 0, i32 2
  %22 = load i32, i32* %21, align 8
  %23 = load %struct.stud*, %struct.stud** %2, align 8
  %24 = getelementptr inbounds %struct.stud, %struct.stud* %23, i32 0, i32 1
  %25 = load i32, i32* %24, align 4
  %26 = add nsw i32 %22, %25
  %27 = load %struct.stud*, %struct.stud** %2, align 8
  %28 = getelementptr inbounds %struct.stud, %struct.stud* %27, i32 0, i32 3
  store i32 %26, i32* %28, align 4
  %29 = call noalias i8* @malloc(i64 24) #3
  %30 = bitcast i8* %29 to %struct.stud*
  store %struct.stud* %30, %struct.stud** %2, align 8
  %31 = load %struct.stud*, %struct.stud** %2, align 8
  %32 = load %struct.stud*, %struct.stud** %3, align 8
  %33 = getelementptr inbounds %struct.stud, %struct.stud* %32, i32 0, i32 4
  store %struct.stud* %31, %struct.stud** %33, align 8
  %34 = load %struct.stud*, %struct.stud** %2, align 8
  store %struct.stud* %34, %struct.stud** %3, align 8
  br label %35

35:                                               ; preds = %12
  %36 = load i32, i32* %4, align 4
  %37 = add nsw i32 %36, 1
  store i32 %37, i32* %4, align 4
  br label %8

38:                                               ; preds = %8
  %39 = load %struct.stud*, %struct.stud** %2, align 8
  %40 = getelementptr inbounds %struct.stud, %struct.stud* %39, i32 0, i32 0
  %41 = load %struct.stud*, %struct.stud** %2, align 8
  %42 = getelementptr inbounds %struct.stud, %struct.stud* %41, i32 0, i32 1
  %43 = load %struct.stud*, %struct.stud** %2, align 8
  %44 = getelementptr inbounds %struct.stud, %struct.stud* %43, i32 0, i32 2
  %45 = call i32 (i8*, ...) @__isoc99_scanf(i8* getelementptr inbounds ([7 x i8], [7 x i8]* @.str, i64 0, i64 0), i32* %40, i32* %42, i32* %44)
  %46 = load %struct.stud*, %struct.stud** %2, align 8
  %47 = getelementptr inbounds %struct.stud, %struct.stud* %46, i32 0, i32 2
  %48 = load i32, i32* %47, align 8
  %49 = load %struct.stud*, %struct.stud** %2, align 8
  %50 = getelementptr inbounds %struct.stud, %struct.stud* %49, i32 0, i32 1
  %51 = load i32, i32* %50, align 4
  %52 = add nsw i32 %48, %51
  %53 = load %struct.stud*, %struct.stud** %2, align 8
  %54 = getelementptr inbounds %struct.stud, %struct.stud* %53, i32 0, i32 3
  store i32 %52, i32* %54, align 4
  %55 = load %struct.stud*, %struct.stud** %2, align 8
  %56 = load %struct.stud*, %struct.stud** %3, align 8
  %57 = getelementptr inbounds %struct.stud, %struct.stud* %56, i32 0, i32 4
  store %struct.stud* %55, %struct.stud** %57, align 8
  %58 = load %struct.stud*, %struct.stud** %2, align 8
  %59 = getelementptr inbounds %struct.stud, %struct.stud* %58, i32 0, i32 4
  store %struct.stud* null, %struct.stud** %59, align 8
  %60 = load %struct.stud*, %struct.stud** %1, align 8
  ret %struct.stud* %60
}

; Function Attrs: nounwind
declare dso_local noalias i8* @malloc(i64) #1

declare dso_local i32 @__isoc99_scanf(i8*, ...) #2

; Function Attrs: noinline nounwind uwtable
define dso_local i32 @max(%struct.stud* %0, i32 %1, i32 %2) #0 {
  %4 = alloca %struct.stud*, align 8
  %5 = alloca i32, align 4
  %6 = alloca i32, align 4
  %7 = alloca %struct.stud*, align 8
  %8 = alloca i32, align 4
  %9 = alloca i32, align 4
  store %struct.stud* %0, %struct.stud** %4, align 8
  store i32 %1, i32* %5, align 4
  store i32 %2, i32* %6, align 4
  %10 = load %struct.stud*, %struct.stud** %4, align 8
  %11 = getelementptr inbounds %struct.stud, %struct.stud* %10, i32 0, i32 3
  %12 = load i32, i32* %11, align 4
  store i32 %12, i32* %8, align 4
  %13 = load %struct.stud*, %struct.stud** %4, align 8
  store %struct.stud* %13, %struct.stud** %7, align 8
  br label %14

14:                                               ; preds = %43, %3
  %15 = load %struct.stud*, %struct.stud** %7, align 8
  %16 = icmp ne %struct.stud* %15, null
  br i1 %16, label %17, label %47

17:                                               ; preds = %14
  %18 = load %struct.stud*, %struct.stud** %7, align 8
  %19 = getelementptr inbounds %struct.stud, %struct.stud* %18, i32 0, i32 3
  %20 = load i32, i32* %19, align 4
  %21 = load i32, i32* %8, align 4
  %22 = icmp sgt i32 %20, %21
  br i1 %22, label %23, label %42

23:                                               ; preds = %17
  %24 = load %struct.stud*, %struct.stud** %7, align 8
  %25 = getelementptr inbounds %struct.stud, %struct.stud* %24, i32 0, i32 0
  %26 = load i32, i32* %25, align 8
  %27 = load i32, i32* %5, align 4
  %28 = icmp ne i32 %26, %27
  br i1 %28, label %29, label %42

29:                                               ; preds = %23
  %30 = load %struct.stud*, %struct.stud** %7, align 8
  %31 = getelementptr inbounds %struct.stud, %struct.stud* %30, i32 0, i32 0
  %32 = load i32, i32* %31, align 8
  %33 = load i32, i32* %6, align 4
  %34 = icmp ne i32 %32, %33
  br i1 %34, label %35, label %42

35:                                               ; preds = %29
  %36 = load %struct.stud*, %struct.stud** %7, align 8
  %37 = getelementptr inbounds %struct.stud, %struct.stud* %36, i32 0, i32 3
  %38 = load i32, i32* %37, align 4
  store i32 %38, i32* %8, align 4
  %39 = load %struct.stud*, %struct.stud** %7, align 8
  %40 = getelementptr inbounds %struct.stud, %struct.stud* %39, i32 0, i32 0
  %41 = load i32, i32* %40, align 8
  store i32 %41, i32* %9, align 4
  br label %42

42:                                               ; preds = %35, %29, %23, %17
  br label %43

43:                                               ; preds = %42
  %44 = load %struct.stud*, %struct.stud** %7, align 8
  %45 = getelementptr inbounds %struct.stud, %struct.stud* %44, i32 0, i32 4
  %46 = load %struct.stud*, %struct.stud** %45, align 8
  store %struct.stud* %46, %struct.stud** %7, align 8
  br label %14

47:                                               ; preds = %14
  %48 = load i32, i32* %8, align 4
  %49 = load i32, i32* %5, align 4
  %50 = icmp ne i32 %48, %49
  br i1 %50, label %51, label %55

51:                                               ; preds = %47
  %52 = load i32, i32* %9, align 4
  %53 = load i32, i32* %8, align 4
  %54 = call i32 (i8*, ...) @printf(i8* getelementptr inbounds ([7 x i8], [7 x i8]* @.str.1, i64 0, i64 0), i32 %52, i32 %53)
  br label %55

55:                                               ; preds = %51, %47
  %56 = load i32, i32* %9, align 4
  ret i32 %56
}

declare dso_local i32 @printf(i8*, ...) #2

; Function Attrs: noinline nounwind uwtable
define dso_local void @main() #0 {
  %1 = alloca %struct.stud*, align 8
  %2 = alloca i32, align 4
  %3 = alloca i32, align 4
  %4 = call i32 (i8*, ...) @__isoc99_scanf(i8* getelementptr inbounds ([3 x i8], [3 x i8]* @.str.2, i64 0, i64 0), i32* @tol)
  %5 = call %struct.stud* @creat()
  store %struct.stud* %5, %struct.stud** %1, align 8
  %6 = load %struct.stud*, %struct.stud** %1, align 8
  %7 = call i32 @max(%struct.stud* %6, i32 0, i32 0)
  store i32 %7, i32* %2, align 4
  %8 = load %struct.stud*, %struct.stud** %1, align 8
  %9 = load i32, i32* %2, align 4
  %10 = call i32 @max(%struct.stud* %8, i32 %9, i32 0)
  store i32 %10, i32* %3, align 4
  %11 = load %struct.stud*, %struct.stud** %1, align 8
  %12 = load i32, i32* %2, align 4
  %13 = load i32, i32* %3, align 4
  %14 = call i32 @max(%struct.stud* %11, i32 %12, i32 %13)
  ret void
}


!llvm.module.flags = !{!0}
!llvm.ident = !{!1}

!0 = !{i32 1, !"wchar_size", i32 4}
!1 = !{!"clang version 10.0.0-4ubuntu1 "}
